target datalayout = "e-m:e-p270:32:32-p271:32:32-p272:64:64-i64:64-i128:128-f80:128-n8:16:32:64-S128"
target triple = "x86_64-pc-linux-gnu"

%struct.AVFormatContext = type { ptr, ptr, ptr, ptr, ptr, i32, i32, ptr, i32, ptr, i32, ptr, ptr, i64, i64, i64, i32, i32, i32, i64, i64, ptr, i32, i32, ptr, i32, i32, i32, i32, ptr, i64, i32, i32, %struct.AVIOInterruptCB, i32, i32, i32, i32, i64, i32, i32, i32, i32, i32, i32, i32, i32, i32, i32, i32, i32, i64, i32, i32, i32, i32, i32, ptr, ptr, ptr, ptr, i32, ptr, ptr, ptr, ptr, i32, ptr, ptr, i64, ptr, ptr, ptr, i64 }
%struct.AVIOInterruptCB = type { ptr, ptr }
%struct.AVStream = type { ptr, i32, i32, ptr, ptr, %struct.AVRational, i64, i64, i64, i32, i32, %struct.AVRational, ptr, %struct.AVRational, %struct.AVPacket, i32, %struct.AVRational, i32 }
%struct.AVPacket = type { ptr, i64, i64, ptr, i32, i32, i32, ptr, i32, i64, i64, ptr, ptr, %struct.AVRational }
%struct.AVRational = type { i32, i32 }

@.str = private unnamed_addr constant [4 x i8] c"rtp\00", align 1
@.str.1 = private unnamed_addr constant [9 x i8] c"rtpflags\00", align 1

; Function Attrs: nounwind uwtable
define i32 @ff_rtp_chain_mux_open(ptr noundef %0, ptr noundef %1, ptr noundef %2, ptr noundef %3, i32 noundef %4, i32 noundef %5) #0 {
  %7 = alloca i32, align 4
  %8 = alloca ptr, align 8
  %9 = alloca ptr, align 8
  %10 = alloca ptr, align 8
  %11 = alloca ptr, align 8
  %12 = alloca i32, align 4
  %13 = alloca i32, align 4
  %14 = alloca ptr, align 8
  %15 = alloca i32, align 4
  %16 = alloca ptr, align 8
  %17 = alloca ptr, align 8
  %18 = alloca ptr, align 8
  %19 = alloca i32, align 4
  store ptr %0, ptr %8, align 8, !tbaa !4
  store ptr %1, ptr %9, align 8, !tbaa !10
  store ptr %2, ptr %10, align 8, !tbaa !12
  store ptr %3, ptr %11, align 8, !tbaa !14
  store i32 %4, ptr %12, align 4, !tbaa !16
  store i32 %5, ptr %13, align 4, !tbaa !16
  call void @llvm.lifetime.start.p0(i64 8, ptr %14) #4
  store ptr null, ptr %14, align 8, !tbaa !10
  call void @llvm.lifetime.start.p0(i64 4, ptr %15) #4
  call void @llvm.lifetime.start.p0(i64 8, ptr %16) #4
  %20 = call ptr @av_guess_format(ptr noundef @.str, ptr noundef null, ptr noundef null)
  store ptr %20, ptr %16, align 8, !tbaa !18
  call void @llvm.lifetime.start.p0(i64 8, ptr %17) #4
  call void @llvm.lifetime.start.p0(i64 8, ptr %18) #4
  store ptr null, ptr %18, align 8, !tbaa !20
  %21 = load ptr, ptr %16, align 8, !tbaa !18
  %22 = icmp ne ptr %21, null
  br i1 %22, label %24, label %23

23:                                               ; preds = %6
  store i32 -38, ptr %15, align 4, !tbaa !16
  br label %181

24:                                               ; preds = %6
  %25 = call ptr @avformat_alloc_context()
  store ptr %25, ptr %14, align 8, !tbaa !10
  %26 = load ptr, ptr %14, align 8, !tbaa !10
  %27 = icmp ne ptr %26, null
  br i1 %27, label %29, label %28

28:                                               ; preds = %24
  store i32 -12, ptr %15, align 4, !tbaa !16
  br label %181

29:                                               ; preds = %24
  %30 = load ptr, ptr %16, align 8, !tbaa !18
  %31 = load ptr, ptr %14, align 8, !tbaa !10
  %32 = getelementptr inbounds nuw %struct.AVFormatContext, ptr %31, i32 0, i32 2
  store ptr %30, ptr %32, align 8, !tbaa !22
  %33 = load ptr, ptr %14, align 8, !tbaa !10
  %34 = call ptr @avformat_new_stream(ptr noundef %33, ptr noundef null)
  %35 = icmp ne ptr %34, null
  br i1 %35, label %37, label %36

36:                                               ; preds = %29
  store i32 -12, ptr %15, align 4, !tbaa !16
  br label %181

37:                                               ; preds = %29
  %38 = load ptr, ptr %14, align 8, !tbaa !10
  %39 = getelementptr inbounds nuw %struct.AVFormatContext, ptr %38, i32 0, i32 33
  %40 = load ptr, ptr %9, align 8, !tbaa !10
  %41 = getelementptr inbounds nuw %struct.AVFormatContext, ptr %40, i32 0, i32 33
  call void @llvm.memcpy.p0.p0.i64(ptr align 8 %39, ptr align 8 %41, i64 16, i1 false), !tbaa.struct !35
  %42 = load ptr, ptr %9, align 8, !tbaa !10
  %43 = getelementptr inbounds nuw %struct.AVFormatContext, ptr %42, i32 0, i32 17
  %44 = load i32, ptr %43, align 4, !tbaa !37
  %45 = load ptr, ptr %14, align 8, !tbaa !10
  %46 = getelementptr inbounds nuw %struct.AVFormatContext, ptr %45, i32 0, i32 17
  store i32 %44, ptr %46, align 4, !tbaa !37
  %47 = load ptr, ptr %14, align 8, !tbaa !10
  %48 = getelementptr inbounds nuw %struct.AVFormatContext, ptr %47, i32 0, i32 7
  %49 = load ptr, ptr %48, align 8, !tbaa !38
  %50 = getelementptr inbounds ptr, ptr %49, i64 0
  %51 = load ptr, ptr %50, align 8, !tbaa !12
  %52 = getelementptr inbounds nuw %struct.AVStream, ptr %51, i32 0, i32 11
  %53 = load ptr, ptr %10, align 8, !tbaa !12
  %54 = getelementptr inbounds nuw %struct.AVStream, ptr %53, i32 0, i32 11
  call void @llvm.memcpy.p0.p0.i64(ptr align 8 %52, ptr align 8 %54, i64 8, i1 false), !tbaa.struct !39
  %55 = load ptr, ptr %9, align 8, !tbaa !10
  %56 = getelementptr inbounds nuw %struct.AVFormatContext, ptr %55, i32 0, i32 18
  %57 = load i32, ptr %56, align 8, !tbaa !40
  %58 = and i32 %57, 1024
  %59 = load ptr, ptr %14, align 8, !tbaa !10
  %60 = getelementptr inbounds nuw %struct.AVFormatContext, ptr %59, i32 0, i32 18
  %61 = load i32, ptr %60, align 8, !tbaa !40
  %62 = or i32 %61, %58
  store i32 %62, ptr %60, align 8, !tbaa !40
  %63 = load ptr, ptr %9, align 8, !tbaa !10
  %64 = getelementptr inbounds nuw %struct.AVFormatContext, ptr %63, i32 0, i32 43
  %65 = load i32, ptr %64, align 8, !tbaa !41
  %66 = load ptr, ptr %14, align 8, !tbaa !10
  %67 = getelementptr inbounds nuw %struct.AVFormatContext, ptr %66, i32 0, i32 43
  store i32 %65, ptr %67, align 8, !tbaa !41
  %68 = load ptr, ptr %10, align 8, !tbaa !12
  %69 = getelementptr inbounds nuw %struct.AVStream, ptr %68, i32 0, i32 2
  %70 = load i32, ptr %69, align 4, !tbaa !42
  %71 = icmp slt i32 %70, 96
  br i1 %71, label %72, label %85

72:                                               ; preds = %37
  %73 = load ptr, ptr %9, align 8, !tbaa !10
  %74 = load ptr, ptr %10, align 8, !tbaa !12
  %75 = getelementptr inbounds nuw %struct.AVStream, ptr %74, i32 0, i32 3
  %76 = load ptr, ptr %75, align 8, !tbaa !49
  %77 = load i32, ptr %13, align 4, !tbaa !16
  %78 = call i32 @ff_rtp_get_payload_type(ptr noundef %73, ptr noundef %76, i32 noundef %77)
  %79 = load ptr, ptr %14, align 8, !tbaa !10
  %80 = getelementptr inbounds nuw %struct.AVFormatContext, ptr %79, i32 0, i32 7
  %81 = load ptr, ptr %80, align 8, !tbaa !38
  %82 = getelementptr inbounds ptr, ptr %81, i64 0
  %83 = load ptr, ptr %82, align 8, !tbaa !12
  %84 = getelementptr inbounds nuw %struct.AVStream, ptr %83, i32 0, i32 2
  store i32 %78, ptr %84, align 4, !tbaa !42
  br label %95

85:                                               ; preds = %37
  %86 = load ptr, ptr %10, align 8, !tbaa !12
  %87 = getelementptr inbounds nuw %struct.AVStream, ptr %86, i32 0, i32 2
  %88 = load i32, ptr %87, align 4, !tbaa !42
  %89 = load ptr, ptr %14, align 8, !tbaa !10
  %90 = getelementptr inbounds nuw %struct.AVFormatContext, ptr %89, i32 0, i32 7
  %91 = load ptr, ptr %90, align 8, !tbaa !38
  %92 = getelementptr inbounds ptr, ptr %91, i64 0
  %93 = load ptr, ptr %92, align 8, !tbaa !12
  %94 = getelementptr inbounds nuw %struct.AVStream, ptr %93, i32 0, i32 2
  store i32 %88, ptr %94, align 4, !tbaa !42
  br label %95

95:                                               ; preds = %85, %72
  %96 = load ptr, ptr %9, align 8, !tbaa !10
  %97 = call i32 @av_opt_get(ptr noundef %96, ptr noundef @.str.1, i32 noundef 1, ptr noundef %17)
  %98 = icmp sge i32 %97, 0
  br i1 %98, label %99, label %102

99:                                               ; preds = %95
  %100 = load ptr, ptr %17, align 8, !tbaa !50
  %101 = call i32 @av_dict_set(ptr noundef %18, ptr noundef @.str.1, ptr noundef %100, i32 noundef 8)
  br label %102

102:                                              ; preds = %99, %95
  %103 = load ptr, ptr %9, align 8, !tbaa !10
  %104 = getelementptr inbounds nuw %struct.AVFormatContext, ptr %103, i32 0, i32 30
  %105 = load i64, ptr %104, align 8, !tbaa !51
  %106 = load ptr, ptr %14, align 8, !tbaa !10
  %107 = getelementptr inbounds nuw %struct.AVFormatContext, ptr %106, i32 0, i32 30
  store i64 %105, ptr %107, align 8, !tbaa !51
  %108 = load ptr, ptr %14, align 8, !tbaa !10
  %109 = getelementptr inbounds nuw %struct.AVFormatContext, ptr %108, i32 0, i32 7
  %110 = load ptr, ptr %109, align 8, !tbaa !38
  %111 = getelementptr inbounds ptr, ptr %110, i64 0
  %112 = load ptr, ptr %111, align 8, !tbaa !12
  %113 = getelementptr inbounds nuw %struct.AVStream, ptr %112, i32 0, i32 3
  %114 = load ptr, ptr %113, align 8, !tbaa !49
  %115 = load ptr, ptr %10, align 8, !tbaa !12
  %116 = getelementptr inbounds nuw %struct.AVStream, ptr %115, i32 0, i32 3
  %117 = load ptr, ptr %116, align 8, !tbaa !49
  %118 = call i32 @avcodec_parameters_copy(ptr noundef %114, ptr noundef %117)
  %119 = load ptr, ptr %14, align 8, !tbaa !10
  %120 = getelementptr inbounds nuw %struct.AVFormatContext, ptr %119, i32 0, i32 7
  %121 = load ptr, ptr %120, align 8, !tbaa !38
  %122 = getelementptr inbounds ptr, ptr %121, i64 0
  %123 = load ptr, ptr %122, align 8, !tbaa !12
  %124 = getelementptr inbounds nuw %struct.AVStream, ptr %123, i32 0, i32 5
  %125 = load ptr, ptr %10, align 8, !tbaa !12
  %126 = getelementptr inbounds nuw %struct.AVStream, ptr %125, i32 0, i32 5
  call void @llvm.memcpy.p0.p0.i64(ptr align 8 %124, ptr align 8 %126, i64 8, i1 false), !tbaa.struct !39
  %127 = load ptr, ptr %11, align 8, !tbaa !14
  %128 = icmp ne ptr %127, null
  br i1 %128, label %129, label %140

129:                                              ; preds = %102
  %130 = load ptr, ptr %14, align 8, !tbaa !10
  %131 = getelementptr inbounds nuw %struct.AVFormatContext, ptr %130, i32 0, i32 4
  %132 = load ptr, ptr %11, align 8, !tbaa !14
  %133 = call i32 @ffio_fdopen(ptr noundef %131, ptr noundef %132)
  store i32 %133, ptr %15, align 4, !tbaa !16
  %134 = load i32, ptr %15, align 4, !tbaa !16
  %135 = icmp slt i32 %134, 0
  br i1 %135, label %136, label %139

136:                                              ; preds = %129
  %137 = load ptr, ptr %11, align 8, !tbaa !14
  %138 = call i32 @ffurl_close(ptr noundef %137)
  br label %139

139:                                              ; preds = %136, %129
  br label %145

140:                                              ; preds = %102
  %141 = load ptr, ptr %14, align 8, !tbaa !10
  %142 = getelementptr inbounds nuw %struct.AVFormatContext, ptr %141, i32 0, i32 4
  %143 = load i32, ptr %12, align 4, !tbaa !16
  %144 = call i32 @ffio_open_dyn_packet_buf(ptr noundef %142, i32 noundef %143)
  store i32 %144, ptr %15, align 4, !tbaa !16
  br label %145

145:                                              ; preds = %140, %139
  %146 = load i32, ptr %15, align 4, !tbaa !16
  %147 = icmp ne i32 %146, 0
  br i1 %147, label %151, label %148

148:                                              ; preds = %145
  %149 = load ptr, ptr %14, align 8, !tbaa !10
  %150 = call i32 @avformat_write_header(ptr noundef %149, ptr noundef %18)
  store i32 %150, ptr %15, align 4, !tbaa !16
  br label %151

151:                                              ; preds = %148, %145
  call void @av_dict_free(ptr noundef %18)
  %152 = load i32, ptr %15, align 4, !tbaa !16
  %153 = icmp ne i32 %152, 0
  br i1 %153, label %154, label %178

154:                                              ; preds = %151
  %155 = load ptr, ptr %11, align 8, !tbaa !14
  %156 = icmp ne ptr %155, null
  br i1 %156, label %157, label %166

157:                                              ; preds = %154
  %158 = load ptr, ptr %14, align 8, !tbaa !10
  %159 = getelementptr inbounds nuw %struct.AVFormatContext, ptr %158, i32 0, i32 4
  %160 = load ptr, ptr %159, align 8, !tbaa !52
  %161 = icmp ne ptr %160, null
  br i1 %161, label %162, label %166

162:                                              ; preds = %157
  %163 = load ptr, ptr %14, align 8, !tbaa !10
  %164 = getelementptr inbounds nuw %struct.AVFormatContext, ptr %163, i32 0, i32 4
  %165 = call i32 @avio_closep(ptr noundef %164)
  br label %175

166:                                              ; preds = %157, %154
  %167 = load ptr, ptr %14, align 8, !tbaa !10
  %168 = getelementptr inbounds nuw %struct.AVFormatContext, ptr %167, i32 0, i32 4
  %169 = load ptr, ptr %168, align 8, !tbaa !52
  %170 = icmp ne ptr %169, null
  br i1 %170, label %171, label %174

171:                                              ; preds = %166
  %172 = load ptr, ptr %14, align 8, !tbaa !10
  %173 = getelementptr inbounds nuw %struct.AVFormatContext, ptr %172, i32 0, i32 4
  call void @ffio_free_dyn_buf(ptr noundef %173)
  br label %174

174:                                              ; preds = %171, %166
  br label %175

175:                                              ; preds = %174, %162
  %176 = load ptr, ptr %14, align 8, !tbaa !10
  call void @avformat_free_context(ptr noundef %176)
  %177 = load i32, ptr %15, align 4, !tbaa !16
  store i32 %177, ptr %7, align 4
  store i32 1, ptr %19, align 4
  br label %190

178:                                              ; preds = %151
  %179 = load ptr, ptr %14, align 8, !tbaa !10
  %180 = load ptr, ptr %8, align 8, !tbaa !4
  store ptr %179, ptr %180, align 8, !tbaa !10
  store i32 0, ptr %7, align 4
  store i32 1, ptr %19, align 4
  br label %190

181:                                              ; preds = %36, %28, %23
  %182 = load ptr, ptr %14, align 8, !tbaa !10
  call void @avformat_free_context(ptr noundef %182)
  %183 = load ptr, ptr %11, align 8, !tbaa !14
  %184 = icmp ne ptr %183, null
  br i1 %184, label %185, label %188

185:                                              ; preds = %181
  %186 = load ptr, ptr %11, align 8, !tbaa !14
  %187 = call i32 @ffurl_close(ptr noundef %186)
  br label %188

188:                                              ; preds = %185, %181
  %189 = load i32, ptr %15, align 4, !tbaa !16
  store i32 %189, ptr %7, align 4
  store i32 1, ptr %19, align 4
  br label %190

190:                                              ; preds = %188, %178, %175
  call void @llvm.lifetime.end.p0(i64 8, ptr %18) #4
  call void @llvm.lifetime.end.p0(i64 8, ptr %17) #4
  call void @llvm.lifetime.end.p0(i64 8, ptr %16) #4
  call void @llvm.lifetime.end.p0(i64 4, ptr %15) #4
  call void @llvm.lifetime.end.p0(i64 8, ptr %14) #4
  %191 = load i32, ptr %7, align 4
  ret i32 %191
}